target datalayout = "e-m:e-p270:32:32-p271:32:32-p272:64:64-i64:64-i128:128-f80:128-n8:16:32:64-S128"
target triple = "x86_64-pc-linux-gnu"

%struct.ERR_string_data_st = type { i64, ptr }

@err_string_lock = internal global ptr null, align 8
@int_error_hash = internal global ptr null, align 8
@err_string_init = internal global i32 0, align 4
@do_err_strings_init_ossl_ret_ = internal global i32 0, align 4

; Function Attrs: inlinehint nounwind uwtable
define internal ptr @ossl_check_const_ERR_STRING_DATA_lh_plain_type(ptr noundef %0) #2 {
  %2 = alloca ptr, align 8
  store ptr %0, ptr %2, align 8, !tbaa !19
  %3 = load ptr, ptr %2, align 8, !tbaa !19
  ret ptr %3
}

; Function Attrs: inlinehint nounwind uwtable
define internal ptr @ossl_check_ERR_STRING_DATA_lh_type(ptr noundef %0) #2 {
  %2 = alloca ptr, align 8
  store ptr %0, ptr %2, align 8, !tbaa !17
  %3 = load ptr, ptr %2, align 8, !tbaa !17
  ret ptr %3
}

; Function Attrs: nounwind uwtable
define i32 @ERR_unload_strings(i32 noundef %0, ptr noundef %1) #0 {
  %3 = alloca i32, align 4
  %4 = alloca i32, align 4
  %5 = alloca ptr, align 8
  store i32 %0, ptr %4, align 4, !tbaa !8
  store ptr %1, ptr %5, align 8, !tbaa !19
  %6 = call i32 @CRYPTO_THREAD_run_once(ptr noundef @err_string_init, ptr noundef @do_err_strings_init_ossl_)
  %7 = icmp ne i32 %6, 0
  br i1 %7, label %8, label %11

8:                                                ; preds = %2
  %9 = load i32, ptr @do_err_strings_init_ossl_ret_, align 4, !tbaa !8
  %10 = icmp ne i32 %9, 0
  br i1 %10, label %13, label %12

11:                                               ; preds = %2
  br i1 false, label %13, label %12

12:                                               ; preds = %11, %8
  store i32 0, ptr %3, align 4
  br label %36

13:                                               ; preds = %11, %8
  %14 = load ptr, ptr @err_string_lock, align 8, !tbaa !16
  %15 = call i32 @CRYPTO_THREAD_write_lock(ptr noundef %14)
  %16 = icmp ne i32 %15, 0
  br i1 %16, label %18, label %17

17:                                               ; preds = %13
  store i32 0, ptr %3, align 4
  br label %36

18:                                               ; preds = %13
  br label %19

19:                                               ; preds = %30, %18
  %20 = load ptr, ptr %5, align 8, !tbaa !19
  %21 = getelementptr inbounds nuw %struct.ERR_string_data_st, ptr %20, i32 0, i32 0
  %22 = load i64, ptr %21, align 8, !tbaa !21
  %23 = icmp ne i64 %22, 0
  br i1 %23, label %24, label %33

24:                                               ; preds = %19
  %25 = load ptr, ptr @int_error_hash, align 8, !tbaa !17
  %26 = call ptr @ossl_check_ERR_STRING_DATA_lh_type(ptr noundef %25)
  %27 = load ptr, ptr %5, align 8, !tbaa !19
  %28 = call ptr @ossl_check_const_ERR_STRING_DATA_lh_plain_type(ptr noundef %27)
  %29 = call ptr @OPENSSL_LH_delete(ptr noundef %26, ptr noundef %28)
  br label %30

30:                                               ; preds = %24
  %31 = load ptr, ptr %5, align 8, !tbaa !19
  %32 = getelementptr inbounds nuw %struct.ERR_string_data_st, ptr %31, i32 1
  store ptr %32, ptr %5, align 8, !tbaa !19
  br label %19, !llvm.loop !25

33:                                               ; preds = %19
  %34 = load ptr, ptr @err_string_lock, align 8, !tbaa !16
  %35 = call i32 @CRYPTO_THREAD_unlock(ptr noundef %34)
  store i32 1, ptr %3, align 4
  br label %36

36:                                               ; preds = %33, %17, %12
  %37 = load i32, ptr %3, align 4
  ret i32 %37
}