; Function Attrs: nounwind uwtable
define range(i32 0, 2) i32 @ERR_unload_strings(i32 noundef %0, ptr noundef %1) local_unnamed_addr #0 {
  %3 = tail call i32 @CRYPTO_THREAD_run_once(ptr noundef nonnull @err_string_init, ptr noundef nonnull @do_err_strings_init_ossl_) #10
  %4 = icmp ne i32 %3, 0
  %5 = load i32, ptr @do_err_strings_init_ossl_ret_, align 4
  %6 = icmp ne i32 %5, 0
  %or.cond = select i1 %4, i1 %6, i1 false
  br i1 %or.cond, label %7, label %17

7:                                                ; preds = %2
  %8 = load ptr, ptr @err_string_lock, align 8, !tbaa !14
  %9 = tail call i32 @CRYPTO_THREAD_write_lock(ptr noundef %8) #10
  %.not = icmp eq i32 %9, 0
  br i1 %.not, label %17, label %.preheader

.preheader:                                       ; preds = %7
  %10 = load i64, ptr %1, align 8, !tbaa !17
  %.not56 = icmp eq i64 %10, 0
  br i1 %.not56, label %._crit_edge, label %.lr.ph

.lr.ph:                                           ; preds = %.preheader, %.lr.ph
  %.07 = phi ptr [ %13, %.lr.ph ], [ %1, %.preheader ]
  %11 = load ptr, ptr @int_error_hash, align 8, !tbaa !15
  %12 = tail call ptr @OPENSSL_LH_delete(ptr noundef %11, ptr noundef nonnull %.07) #10
  %13 = getelementptr inbounds nuw i8, ptr %.07, i64 16
  %14 = load i64, ptr %13, align 8, !tbaa !17
  %.not5 = icmp eq i64 %14, 0
  br i1 %.not5, label %._crit_edge, label %.lr.ph, !llvm.loop !21

._crit_edge:                                      ; preds = %.lr.ph, %.preheader
  %15 = load ptr, ptr @err_string_lock, align 8, !tbaa !14
  %16 = tail call i32 @CRYPTO_THREAD_unlock(ptr noundef %15) #10
  br label %17

17:                                               ; preds = %7, %2, %._crit_edge
  %.04 = phi i32 [ 1, %._crit_edge ], [ 0, %2 ], [ 0, %7 ]
  ret i32 %.04
}